target datalayout = "e-m:e-p270:32:32-p271:32:32-p272:64:64-i64:64-i128:128-f80:128-n8:16:32:64-S128"
target triple = "x86_64-pc-linux-gnu"

%struct.AVFilterContext = type { ptr, ptr, ptr, ptr, ptr, i32, ptr, ptr, i32, ptr, ptr, i32, i32, ptr, ptr, ptr, ptr, i32, ptr, i32, i32 }
%struct.ADenormContext = type { ptr, double, double, i32, i64, [4 x ptr] }

; Function Attrs: nounwind uwtable
define internal void @ps_denorm_fltp(ptr noundef %0, ptr noundef %1, ptr noundef %2, i32 noundef %3) #1 {
  %5 = alloca ptr, align 8
  %6 = alloca ptr, align 8
  %7 = alloca ptr, align 8
  %8 = alloca i32, align 4
  %9 = alloca ptr, align 8
  %10 = alloca ptr, align 8
  %11 = alloca ptr, align 8
  %12 = alloca float, align 4
  %13 = alloca i64, align 8
  %14 = alloca i32, align 4
  store ptr %0, ptr %5, align 8, !tbaa !23
  store ptr %1, ptr %6, align 8, !tbaa !52
  store ptr %2, ptr %7, align 8, !tbaa !52
  store i32 %3, ptr %8, align 4, !tbaa !53
  call void @llvm.lifetime.start.p0(i64 8, ptr %9) #6
  %15 = load ptr, ptr %5, align 8, !tbaa !23
  %16 = getelementptr inbounds nuw %struct.AVFilterContext, ptr %15, i32 0, i32 9
  %17 = load ptr, ptr %16, align 8, !tbaa !24
  store ptr %17, ptr %9, align 8, !tbaa !34
  call void @llvm.lifetime.start.p0(i64 8, ptr %10) #6
  %18 = load ptr, ptr %7, align 8, !tbaa !52
  store ptr %18, ptr %10, align 8, !tbaa !64
  call void @llvm.lifetime.start.p0(i64 8, ptr %11) #6
  %19 = load ptr, ptr %6, align 8, !tbaa !52
  store ptr %19, ptr %11, align 8, !tbaa !64
  call void @llvm.lifetime.start.p0(i64 4, ptr %12) #6
  %20 = load ptr, ptr %9, align 8, !tbaa !34
  %21 = getelementptr inbounds nuw %struct.ADenormContext, ptr %20, i32 0, i32 1
  %22 = load double, ptr %21, align 8, !tbaa !46
  %23 = fptrunc nsz double %22 to float
  store float %23, ptr %12, align 4, !tbaa !66
  call void @llvm.lifetime.start.p0(i64 8, ptr %13) #6
  %24 = load ptr, ptr %9, align 8, !tbaa !34
  %25 = getelementptr inbounds nuw %struct.ADenormContext, ptr %24, i32 0, i32 4
  %26 = load i64, ptr %25, align 8, !tbaa !51
  store i64 %26, ptr %13, align 8, !tbaa !69
  call void @llvm.lifetime.start.p0(i64 4, ptr %14) #6
  store i32 0, ptr %14, align 4, !tbaa !53
  br label %27

27:                                               ; preds = %51, %4
  %28 = load i32, ptr %14, align 4, !tbaa !53
  %29 = load i32, ptr %8, align 4, !tbaa !53
  %30 = icmp slt i32 %28, %29
  br i1 %30, label %32, label %31

31:                                               ; preds = %27
  call void @llvm.lifetime.end.p0(i64 4, ptr %14) #6
  br label %54

32:                                               ; preds = %27
  %33 = load ptr, ptr %10, align 8, !tbaa !64
  %34 = load i32, ptr %14, align 4, !tbaa !53
  %35 = sext i32 %34 to i64
  %36 = getelementptr inbounds float, ptr %33, i64 %35
  %37 = load float, ptr %36, align 4, !tbaa !66
  %38 = load float, ptr %12, align 4, !tbaa !66
  %39 = load i64, ptr %13, align 8, !tbaa !69
  %40 = load i32, ptr %14, align 4, !tbaa !53
  %41 = sext i32 %40 to i64
  %42 = add nsw i64 %39, %41
  %43 = and i64 %42, 255
  %44 = icmp ne i64 %43, 0
  %45 = select nsz i1 %44, float 0.000000e+00, float 1.000000e+00
  %46 = call nsz float @llvm.fmuladd.f32(float %38, float %45, float %37)
  %47 = load ptr, ptr %11, align 8, !tbaa !64
  %48 = load i32, ptr %14, align 4, !tbaa !53
  %49 = sext i32 %48 to i64
  %50 = getelementptr inbounds float, ptr %47, i64 %49
  store float %46, ptr %50, align 4, !tbaa !66
  br label %51

51:                                               ; preds = %32
  %52 = load i32, ptr %14, align 4, !tbaa !53
  %53 = add nsw i32 %52, 1
  store i32 %53, ptr %14, align 4, !tbaa !53
  br label %27, !llvm.loop !72

54:                                               ; preds = %31
  call void @llvm.lifetime.end.p0(i64 8, ptr %13) #6
  call void @llvm.lifetime.end.p0(i64 4, ptr %12) #6
  call void @llvm.lifetime.end.p0(i64 8, ptr %11) #6
  call void @llvm.lifetime.end.p0(i64 8, ptr %10) #6
  call void @llvm.lifetime.end.p0(i64 8, ptr %9) #6
  ret void
}